(dp0
VAISI-843
p1
(lp2
g1
aVSA-308
p3
aVDEMO-321
p4
aVSA-360
p5
aVAISI-3750
p6
asVAISI-1058
p7
(lp8
g7
aVAISI-2361
p9
aVAISI-5972
p10
aVAISI-3032
p11
aVSA-207
p12
asVAISI-1081
p13
(lp14
g13
aVDC-200
p15
aVDEMO-12
p16
aVEAAI-84
p17
aVSMT-351
p18
asVAISI-1438
p19
(lp20
g19
aVSA-297
p21
aVAISI-6902
p22
aVIAAI-149
p23
aVIAAI-23
p24
asg9
(lp25
g9
ag7
aVAISI-5504
p26
aVIAAI-132
p27
ag12
asVAISI-2462
p28
(lp29
g28
aVSA-234
p30
aVAISI-6172
p31
aVSA-379
p32
aVEAAI-41
p33
asVAISI-2820
p34
(lp35
g34
aVAISI-9345
p36
aVSA-177
p37
aVSA-161
p38
aVAISI-8682
p39
asg11
(lp40
g11
aVAISI-9334
p41
aVAISI-8961
p42
aVAISI-8315
p43
aVIAAI-165
p44
asVAISI-3105
p45
(lp46
g45
aVSA-263
p47
aVSA-167
p48
aVAISI-8774
p49
ag37
asVAISI-3133
p50
(lp51
g50
aVSA-156
p52
aVSA-345
p53
aVSA-358
p54
aVSA-249
p55
asVAISI-3631
p56
(lp57
g56
aVIAAI-77
p58
aVIAAI-146
p59
ag10
ag7
asg6
(lp60
g6
aVAISI-6126
p61
aVDC-318
p62
ag28
ag32
asVAISI-3785
p63
(lp64
g63
aVIAAI-174
p65
aVSA-148
p66
aVSA-385
p67
aVEAAI-71
p68
asVAISI-3849
p69
(lp70
g69
ag50
ag9
ag62
ag44
asVAISI-4304
p71
(lp72
g71
ag39
aVSA-171
p73
ag58
ag26
asVAISI-4906
p74
(lp75
g74
aVIAAI-142
p76
aVIAAI-101
p77
aVAISI-7578
p78
ag7
asVAISI-5196
p79
(lp80
g79
ag67
ag31
ag4
aVSA-388
p81
asg26
(lp82
g26
ag9
aVSA-305
p83
ag73
ag81
asg10
(lp84
g10
aVSA-69
p85
ag77
ag7
ag41
asg61
(lp86
g61
ag6
ag15
aVIAAI-124
p87
ag62
asg31
(lp88
g31
ag30
ag28
ag79
aVDEMO-178
p89
asVAISI-6289
p90
(lp91
g90
aVSA-309
p92
ag79
aVSA-129
p93
ag33
asVAISI-6513
p94
(lp95
g94
aVIAAI-113
p96
ag41
aVSA-237
p97
aVSA-223
p98
asVAISI-6699
p99
(lp100
g99
aVAISI-7256
p101
aVSA-215
p102
aVSA-374
p103
aVDEMO-395
p104
asVAISI-6802
p105
(lp106
g105
aVSA-280
p107
aVEAAI-68
p108
aVEAAI-85
p109
aVEAAI-43
p110
asg22
(lp111
g22
ag21
ag19
ag31
ag11
asg101
(lp112
g101
ag99
ag102
ag103
ag104
asVAISI-7467
p113
(lp114
g113
aVDC-260
p115
aVDC-423
p116
ag49
aVSA-299
p117
asg78
(lp118
g78
ag36
ag74
ag81
ag11
asVAISI-8076
p119
(lp120
g119
aVDEMO-6
p121
aVSA-302
p122
aVSA-140
p123
aVIAAI-87
p124
asg43
(lp125
g43
ag42
aVIAAI-152
p126
ag11
ag41
asg39
(lp127
g39
ag71
ag73
ag58
ag81
asVAISI-8710
p128
(lp129
g128
ag9
ag28
ag13
aVDEMO-227
p130
asVAISI-8731
p131
(lp132
g131
ag65
ag108
aVEAAI-16
p133
ag109
asg49
(lp134
g49
ag24
ag65
ag89
ag10
asg42
(lp135
g42
ag43
ag11
ag126
ag44
asVAISI-8975
p136
(lp137
g136
aVDEMO-265
p138
ag77
ag76
ag26
asg41
(lp139
g41
ag11
ag43
ag44
ag10
asg36
(lp140
g36
ag78
ag79
ag34
ag71
asVAISI-9362
p141
(lp142
g141
aVSA-285
p143
aVSA-287
p144
aVSA-251
p145
aVSA-421
p146
asVAISI-9414
p147
(lp148
g147
ag32
aVSA-368
p149
aVSA-346
p150
aVSA-416
p151
asg121
(lp152
g121
aVSA-413
p153
aVSA-406
p154
ag123
aVSA-403
p155
asg16
(lp156
g16
aVDC-304
p157
aVIAAI-60
p158
ag13
ag144
asVDEMO-91
p159
(lp160
g159
aVDEMO-93
p161
aVDEMO-212
p162
aVDEMO-232
p163
aVDEMO-268
p164
asg161
(lp165
g161
ag159
aVDEMO-159
p166
ag162
ag138
asVDEMO-97
p167
(lp168
g167
ag37
ag41
ag161
ag116
asVDEMO-104
p169
(lp170
g169
aVEAAI-47
p171
ag108
aVEAAI-65
p172
aVEAAI-26
p173
asVDEMO-105
p174
(lp175
g174
ag65
ag59
ag13
ag104
asVDEMO-109
p176
(lp177
g176
aVSA-166
p178
aVDEMO-398
p179
ag162
aVIAAI-73
p180
asVDEMO-124
p181
(lp182
g181
aVIAAI-21
p183
ag55
aVSA-11
p184
aVDEMO-134
p185
asVDEMO-153
p186
(lp187
g186
aVDEMO-155
p188
aVSA-381
p189
aVDC-281
p190
aVDC-246
p191
asg188
(lp192
g188
ag189
ag186
aVDEMO-219
p193
aVDC-340
p194
asg166
(lp195
g166
aVSA-193
p196
ag162
aVDEMO-298
p197
aVSA-258
p198
asVDEMO-170
p199
(lp200
g199
aVIAAI-89
p201
ag23
aVDEMO-284
p202
ag164
asVDEMO-172
p203
(lp204
g203
ag49
aVSA-201
p205
ag109
aVSA-277
p206
asVDEMO-174
p207
(lp208
g207
aVDC-127
p209
ag4
ag146
ag113
asVDEMO-196
p210
(lp211
g210
ag109
ag110
aVEAAI-23
p212
ag172
asg162
(lp213
g162
ag166
aVDEMO-252
p214
ag159
aVIAAI-17
p215
asg193
(lp216
g193
aVDEMO-338
p217
aVDEMO-355
p218
aVDEMO-278
p219
aVSMT-362
p220
asg130
(lp221
g130
ag117
aVDEMO-324
p222
aVDC-79
p223
ag126
asg163
(lp224
g163
ag55
ag159
aVEAAI-20
p225
ag162
asVDEMO-233
p226
(lp227
g226
ag220
aVIAAI-179
p228
ag219
aVDEMO-313
p229
asg214
(lp230
g214
ag162
ag166
ag225
ag159
asg138
(lp231
g138
aVSA-141
p232
aVDC-311
p233
aVSA-396
p234
ag136
asg164
(lp235
g164
ag162
ag159
ag163
ag161
asg219
(lp236
g219
ag217
ag193
ag104
ag218
asg202
(lp237
g202
aVIAAI-151
p238
aVDEMO-319
p239
ag199
aVIAAI-99
p240
asg197
(lp241
g197
aVSA-286
p242
ag196
aVSA-149
p243
ag52
asg229
(lp244
g229
ag212
ag162
ag226
ag214
asg239
(lp245
g239
ag122
ag123
ag138
ag193
asg4
(lp246
g4
ag79
ag5
ag81
aVIAAI-34
p247
asg222
(lp248
g222
ag223
aVIAAI-31
p249
ag171
aVSMT-282
p250
asVDEMO-336
p251
(lp252
g251
ag96
ag27
aVEAAI-92
p253
aVSA-397
p254
asg217
(lp255
g217
ag193
ag218
ag219
aVSA-279
p256
asg218
(lp257
g218
ag193
ag217
ag219
ag104
asVDEMO-363
p258
(lp259
g258
ag21
ag119
aVSMT-230
p260
ag49
asVDEMO-367
p261
(lp262
g261
aVIAAI-145
p263
ag77
ag136
aVIAAI-100
p264
asVDEMO-394
p265
(lp266
g265
ag183
aVSA-376
p267
ag97
aVSA-357
p268
asg104
(lp269
g104
ag219
ag193
ag218
ag18
asg185
(lp270
g185
ag85
ag47
ag5
ag89
asVDEMO-135
p271
(lp272
g271
ag48
ag172
aVSA-418
p273
ag4
asVDEMO-157
p274
(lp275
g274
ag166
ag34
aVIAAI-140
p276
aVIAAI-176
p277
asVDEMO-175
p278
(lp279
g278
aVSA-315
p280
aVSA-242
p281
ag24
ag93
asg89
(lp282
g89
aVIAAI-55
p283
ag31
ag49
ag185
asVDEMO-344
p284
(lp285
g284
ag238
aVIAAI-59
p286
ag232
ag176
asg179
(lp287
g179
ag176
ag162
ag238
ag11
asVDEMO-404
p288
(lp289
g288
ag215
ag277
aVSA-375
p290
ag122
asg223
(lp291
g223
aVSMT-128
p292
ag17
ag173
aVDC-169
p293
asVDC-118
p294
(lp295
g294
aVSA-370
p296
aVSA-131
p297
ag215
ag150
asg209
(lp298
g209
ag293
ag223
aVDC-429
p299
ag190
asg293
(lp300
g293
ag223
ag209
ag292
ag173
asg15
(lp301
g15
ag87
ag61
ag59
ag13
asg191
(lp302
g191
aVSA-210
p303
ag76
ag123
ag186
asg115
(lp304
g115
ag113
aVSA-235
p305
aVSA-290
p306
ag62
asVDC-276
p307
(lp308
g307
ag209
ag223
ag293
ag299
asg190
(lp309
g190
aVUC-56
p310
ag186
ag232
ag209
asg157
(lp311
g157
ag133
aVEAAI-66
p312
ag16
aVEAAI-96
p313
asg233
(lp314
g233
ag138
ag234
ag232
ag210
asVDC-314
p315
(lp316
g315
ag123
ag239
aVEAAI-53
p317
ag167
asVDC-317
p318
(lp319
g318
aVEAAI-42
p320
aVSA-356
p321
ag299
aVSA-239
p322
asg62
(lp323
g62
ag6
ag61
ag256
aVIAAI-76
p324
asg194
(lp325
g194
aVSMT-432
p326
aVSA-229
p327
aVSA-206
p328
aVSA-333
p329
asVDC-415
p330
(lp331
g330
aVEAAI-51
p332
ag16
ag37
ag303
asg116
(lp333
g116
ag55
ag85
ag47
ag153
asg299
(lp334
g299
ag234
ag209
ag249
ag180
asg133
(lp335
g133
ag212
aVEAAI-78
p336
ag110
ag68
asVEAAI-18
p337
(lp338
g337
aVEAAI-28
p339
aVEAAI-21
p340
aVEAAI-94
p341
aVEAAI-25
p342
asg225
(lp343
g225
ag110
ag17
ag336
ag212
asg340
(lp344
g340
aVEAAI-89
p345
ag313
aVEAAI-6
p346
ag342
asg212
(lp347
g212
ag110
ag336
ag173
ag17
asg342
(lp348
g342
ag340
ag339
ag337
ag313
asg173
(lp349
g173
ag17
ag110
ag336
ag212
asg339
(lp350
g339
ag346
ag340
ag337
ag313
asVEAAI-37
p351
(lp352
g351
ag339
ag337
ag340
ag341
asg33
(lp353
g33
ag110
aVEAAI-75
p354
ag173
ag17
asg320
(lp355
g320
ag17
ag292
ag173
ag171
asg110
(lp356
g110
ag17
ag173
ag212
ag336
asg171
(lp357
g171
ag173
ag17
ag110
ag292
asg332
(lp358
g332
ag33
ag336
ag110
ag173
asg317
(lp359
g317
ag133
ag341
ag345
ag212
asg346
(lp360
g346
ag339
ag345
ag340
ag313
asg172
(lp361
g172
ag212
ag110
ag336
ag109
asg312
(lp362
g312
ag313
aVEAAI-67
p363
ag339
ag337
asg363
(lp364
g363
ag339
ag346
ag313
ag340
asg108
(lp365
g108
ag109
ag169
ag172
ag225
asg68
(lp366
g68
ag212
ag173
ag110
ag17
asg354
(lp367
g354
ag33
ag110
ag173
ag336
asg336
(lp368
g336
ag110
ag212
ag17
ag173
asg17
(lp369
g17
ag173
ag110
ag292
ag336
asg109
(lp370
g109
ag108
ag110
ag212
ag336
asg345
(lp371
g345
ag340
ag346
ag313
ag339
asVEAAI-91
p372
(lp373
g372
ag341
ag337
ag340
ag312
asg253
(lp374
g253
ag345
ag312
ag341
ag351
asg341
(lp375
g341
ag372
ag339
ag337
ag313
asg313
(lp376
g313
ag340
ag346
ag339
ag345
asg24
(lp377
g24
ag49
ag65
ag66
ag280
asg180
(lp378
g180
aVIAAI-93
p379
ag166
ag176
ag215
asVIAAI-84
p380
(lp381
g380
ag24
ag276
ag214
aVIAAI-65
p382
asg201
(lp383
g201
ag228
ag199
ag238
ag382
asVIAAI-92
p384
(lp385
g384
ag379
ag87
ag24
ag136
asg379
(lp386
g379
ag180
ag276
aVIAAI-190
p387
ag79
asg264
(lp388
g264
ag27
ag261
ag340
ag219
asg87
(lp389
g87
ag15
ag61
ag387
ag71
asg27
(lp390
g27
aVIAAI-171
p391
ag9
ag59
aVIAAI-74
p392
asg276
(lp393
g276
aVSA-273
p394
ag379
ag380
ag97
asg263
(lp395
g263
ag261
ag79
ag15
ag23
asg23
(lp396
g23
ag19
ag77
aVIAAI-167
p397
ag219
asg238
(lp398
g238
ag284
ag327
ag276
ag4
asg387
(lp399
g387
ag379
ag87
ag214
ag320
asg183
(lp400
g183
ag55
ag181
ag47
ag97
asg247
(lp401
g247
ag345
ag4
ag5
ag138
asg283
(lp402
g283
ag89
ag87
ag387
ag52
asg286
(lp403
g286
ag284
ag150
ag199
ag202
asg158
(lp404
g158
ag16
ag44
ag7
ag24
asg392
(lp405
g392
ag27
ag391
ag9
ag43
asg324
(lp406
g324
ag62
ag13
ag39
ag44
asg58
(lp407
g58
ag73
ag71
ag56
ag39
asg124
(lp408
g124
ag24
ag121
ag172
ag119
asVIAAI-98
p409
(lp410
g409
ag242
ag197
ag52
ag243
asg240
(lp411
g240
ag220
ag193
ag249
ag202
asg77
(lp412
g77
ag10
ag81
ag261
ag214
asVIAAI-104
p413
(lp414
g413
ag153
ag65
ag306
ag363
asVIAAI-105
p415
(lp416
g415
ag354
ag163
ag183
ag68
asg96
(lp417
g96
ag197
ag94
ag52
ag251
asVIAAI-119
p418
(lp419
g418
ag3
ag384
aVSA-213
p420
ag218
asg76
(lp421
g76
ag74
ag136
ag380
ag247
asg59
(lp422
g59
ag15
ag27
ag56
ag9
asg126
(lp423
g126
ag43
ag44
ag42
aVIAAI-154
p424
asg424
(lp425
g424
ag126
ag41
ag11
ag87
asVIAAI-157
p426
(lp427
g426
aVSA-392
p428
ag37
ag268
ag47
asg44
(lp429
g44
ag277
ag126
ag11
ag41
asg397
(lp430
g397
aVSA-283
p431
ag273
ag58
ag23
asg391
(lp432
g391
ag27
ag15
ag392
aVSA-186
p433
asg65
(lp434
g65
ag63
ag66
ag67
ag24
asg277
(lp435
g277
ag44
aVIAAI-37
p436
aVSA-143
p437
ag26
asg228
(lp438
g228
ag143
ag146
ag201
ag226
asg215
(lp439
g215
ag162
ag288
ag166
ag150
asg436
(lp440
g436
ag277
ag176
ag320
ag133
asg249
(lp441
g249
ag223
ag222
ag299
ag173
asVIAAI-43
p442
(lp443
g442
ag284
ag3
ag43
ag341
asg382
(lp444
g382
ag238
ag201
ag380
ag228
asg292
(lp445
g292
ag17
ag18
ag173
ag223
asg250
(lp446
g250
ag222
ag223
aVSMT-427
p447
ag19
asg18
(lp448
g18
ag292
ag17
ag223
ag260
asg220
(lp449
g220
ag193
ag226
ag260
ag218
asg447
(lp450
g447
aVSA-138
p451
ag3
ag250
ag233
asg260
(lp452
g260
ag292
ag17
ag220
ag18
asg326
(lp453
g326
ag292
ag194
ag223
ag17
asg184
(lp454
g184
ag122
ag121
ag153
ag123
asg85
(lp455
g85
ag10
ag185
aVSA-436
p456
ag116
asVSA-117
p457
(lp458
g457
aVSA-144
p459
aVSA-372
p460
ag43
ag150
asg93
(lp461
g93
ag81
ag79
ag90
ag36
asg297
(lp462
g297
ag294
ag155
ag38
ag273
asg451
(lp463
g451
ag447
ag3
ag144
ag67
asg123
(lp464
g123
ag121
ag138
ag239
ag154
asg232
(lp465
g232
ag138
ag234
ag233
ag190
asg437
(lp466
g437
aVSA-168
p467
ag277
aVSA-390
p468
ag317
asg459
(lp469
g459
ag457
ag43
aVSA-380
p470
ag10
asg66
(lp471
g66
ag65
ag67
ag63
ag24
asg243
(lp472
g243
ag197
ag196
ag242
ag97
asg52
(lp473
g52
ag197
ag242
ag50
ag196
asg38
(lp474
g38
ag254
ag34
ag130
ag228
asVSA-163
p475
(lp476
g475
ag5
ag85
ag290
ag265
asVSA-165
p477
(lp478
g477
ag467
ag151
ag433
ag468
asg178
(lp479
g178
ag81
ag176
ag4
ag379
asg48
(lp480
g48
aVSA-188
p481
ag85
ag273
ag184
asg467
(lp482
g467
ag437
ag477
ag468
ag460
asg73
(lp483
g73
ag58
ag39
ag71
ag83
asg37
(lp484
g37
ag167
ag34
ag327
ag330
asg433
(lp485
g433
ag477
ag303
ag468
ag391
asVSA-187
p486
(lp487
g486
ag121
ag138
ag123
ag154
asg481
(lp488
g481
ag48
ag193
aVSA-400
p489
ag67
asVSA-192
p490
(lp491
g490
ag460
ag143
ag467
ag102
asg196
(lp492
g196
ag197
ag166
ag243
ag242
asVSA-197
p493
(lp494
g493
ag97
ag460
ag196
ag119
asg205
(lp495
g205
ag267
ag16
ag144
ag49
asg328
(lp496
g328
ag346
ag313
ag345
ag339
asg12
(lp497
g12
ag92
aVSA-417
p498
ag273
ag420
asg303
(lp499
g303
ag341
ag342
ag337
aVSA-267
p500
asg420
(lp501
g420
aVSA-407
p502
ag92
ag108
ag122
asg102
(lp503
g102
ag101
ag99
ag171
ag169
asg98
(lp504
g98
ag126
ag97
ag12
ag92
asg327
(lp505
g327
ag194
ag238
ag30
ag37
asg30
(lp506
g30
ag28
ag31
ag498
ag327
asg305
(lp507
g305
ag115
ag180
ag178
ag306
asg97
(lp508
g97
ag196
ag243
ag394
ag460
asg322
(lp509
g322
ag151
ag346
aVSA-274
p510
ag318
asg281
(lp511
g281
ag278
aVSA-256
p512
ag58
ag198
asg55
(lp513
g55
ag163
ag183
ag47
ag116
asg145
(lp514
g145
ag183
ag424
ag109
ag141
asg512
(lp515
g512
ag198
ag281
aVSA-354
p516
ag85
asg198
(lp517
g198
ag197
ag196
ag242
ag512
asg47
(lp518
g47
ag55
ag183
ag185
ag268
asg500
(lp519
g500
ag303
ag467
ag273
ag220
asg394
(lp520
g394
ag97
ag276
ag54
ag183
asg510
(lp521
g510
ag489
ag205
ag144
ag47
asg206
(lp522
g206
ag110
ag273
ag332
ag123
asg256
(lp523
g256
ag217
ag62
ag153
ag155
asg107
(lp524
g107
ag105
ag109
ag110
ag336
asg431
(lp525
g431
ag397
ag273
ag58
ag23
asg143
(lp526
g143
ag146
ag228
ag151
ag141
asg242
(lp527
g242
ag197
ag196
ag243
ag52
asg144
(lp528
g144
ag47
ag16
ag205
ag428
asg306
(lp529
g306
ag197
ag115
ag305
ag61
asVSA-292
p530
(lp531
g530
ag3
ag447
ag363
ag328
asVSA-293
p532
(lp533
g532
ag256
ag339
ag131
ag330
asg21
(lp534
g21
ag22
ag19
ag258
ag65
asg117
(lp535
g117
ag130
ag223
ag18
ag260
asVSA-300
p536
(lp537
g536
ag184
ag50
ag327
ag155
asg122
(lp538
g122
ag239
ag184
ag420
ag121
asg83
(lp539
g83
ag73
ag26
ag27
ag276
asVSA-306
p540
(lp541
g540
ag63
ag66
ag65
ag205
asg3
(lp542
g3
ag451
ag447
ag48
ag418
asg92
(lp543
g92
ag12
ag420
ag33
ag90
asg280
(lp544
g280
ag278
ag24
ag226
ag66
asg329
(lp545
g329
ag337
ag133
ag342
ag313
asg53
(lp546
g53
ag52
ag50
ag26
ag277
asg150
(lp547
g150
ag162
ag166
ag225
ag215
asVSA-349
p548
(lp549
g548
ag119
ag28
ag32
ag258
asVSA-353
p550
(lp551
g550
ag7
ag21
ag194
ag286
asg516
(lp552
g516
ag164
ag512
ag475
ag24
asg321
(lp553
g321
ag318
ag99
aVSA-386
p554
ag53
asg268
(lp555
g268
ag47
ag172
ag265
aVSA-411
p556
asg54
(lp557
g54
ag394
ag50
ag41
ag267
asg5
(lp558
g5
ag475
ag4
ag185
ag85
asg149
(lp559
g149
ag196
ag243
ag460
ag198
asg296
(lp560
g296
ag294
ag193
ag21
ag554
asg460
(lp561
g460
ag196
ag242
ag243
ag197
asg103
(lp562
g103
ag99
ag101
ag5
ag493
asg290
(lp563
g290
ag475
ag384
ag153
ag123
asg267
(lp564
g267
ag55
ag163
ag97
ag146
asg32
(lp565
g32
ag28
ag147
ag79
ag198
asg470
(lp566
g470
ag459
ag176
ag297
ag418
asg189
(lp567
g189
ag188
ag186
ag161
ag194
asg67
(lp568
g67
ag66
ag65
ag79
ag63
asg554
(lp569
g554
ag296
ag102
ag17
ag277
asg81
(lp570
g81
ag178
ag79
ag77
ag4
asg468
(lp571
g468
ag477
ag498
ag433
ag437
asg428
(lp572
g428
ag144
ag143
ag426
ag240
asg234
(lp573
g234
ag138
ag233
ag232
ag299
asg254
(lp574
g254
ag38
ag143
ag73
ag39
asg489
(lp575
g489
ag510
ag481
ag196
ag502
asg155
(lp576
g155
ag153
ag121
ag184
ag85
asg154
(lp577
g154
ag121
ag153
ag123
ag184
asg502
(lp578
g502
ag420
ag122
ag481
ag239
asg556
(lp579
g556
ag193
ag172
ag265
ag217
asg153
(lp580
g153
ag155
ag121
ag154
ag184
asVSA-414
p581
(lp582
g581
ag260
ag121
ag150
ag18
asg151
(lp583
g151
ag477
ag143
ag322
ag150
asg498
(lp584
g498
ag30
ag12
ag7
ag31
asg273
(lp585
g273
ag206
ag431
ag12
ag397
asg146
(lp586
g146
ag143
ag228
ag267
ag201
asg456
(lp587
g456
ag85
ag185
ag329
ag123
asg310
(lp588
g310
ag190
ag459
ag223
ag490
asVUC-77
p589
(lp590
VUC-66
p591
aVUC-71
p592
aVUC-49
p593
aVUC-10
p594
aVUC-76
p595
asVUC-59
p596
(lp597
g591
ag592
ag593
ag594
ag595
asg591
(lp598
g591
ag592
ag593
ag594
ag595
asg594
(lp599
g591
ag592
ag593
ag594
ag595
asg593
(lp600
g591
ag592
ag593
ag594
ag595
asg592
(lp601
g591
ag592
ag593
ag594
ag595
asVUC-47
p602
(lp603
g591
ag592
ag593
ag594
ag595
asVUC-30
p604
(lp605
g591
ag592
ag593
ag594
ag595
asVUC-46
p606
(lp607
g591
ag592
ag593
ag594
ag595
asVUC-29
p608
(lp609
g591
ag592
ag593
ag594
ag595
asVUC-34
p610
(lp611
g591
ag592
ag593
ag594
ag595
asVUC-40
p612
(lp613
g591
ag592
ag593
ag594
ag595
asg595
(lp614
g591
ag592
ag593
ag594
ag595
as.